; Function Attrs: mustprogress uwtable
define void @_ZNK6casadi10Polynomial4dispERSob(ptr noundef nonnull align 8 dereferenceable(24) %0, ptr noundef nonnull align 8 dereferenceable(8) %1, i1 noundef zeroext %2) local_unnamed_addr #3 align 2 personality ptr @__gxx_personality_v0 {
  %4 = alloca %"class.std::__cxx11::basic_string", align 8
  br i1 %2, label %.preheader, label %36

.preheader:                                       ; preds = %3
  %5 = getelementptr inbounds i8, ptr %0, i64 8
  %6 = load ptr, ptr %5, align 8
  %7 = load ptr, ptr %0, align 8
  %.not = icmp eq ptr %6, %7
  br i1 %.not, label %.loopexit, label %.lr.ph

.lr.ph:                                           ; preds = %.preheader, %27
  %8 = phi ptr [ %30, %27 ], [ %7, %.preheader ]
  %.013 = phi i64 [ %28, %27 ], [ 0, %.preheader ]
  switch i64 %.013, label %19 [
    i64 0, label %9
    i64 1, label %12
  ]

9:                                                ; preds = %.lr.ph
  %10 = load double, ptr %8, align 8
  %11 = tail call noundef nonnull align 8 dereferenceable(8) ptr @_ZNSolsEd(ptr noundef nonnull align 8 dereferenceable(8) %1, double noundef %10)
  br label %27

12:                                               ; preds = %.lr.ph
  %13 = tail call noundef nonnull align 8 dereferenceable(8) ptr @_ZStlsISt11char_traitsIcEERSt13basic_ostreamIcT_ES5_PKc(ptr noundef nonnull align 8 dereferenceable(8) %1, ptr noundef nonnull @.str)
  %14 = load ptr, ptr %0, align 8
  %15 = getelementptr inbounds i8, ptr %14, i64 8
  %16 = load double, ptr %15, align 8
  %17 = tail call noundef nonnull align 8 dereferenceable(8) ptr @_ZNSolsEd(ptr noundef nonnull align 8 dereferenceable(8) %13, double noundef %16)
  %18 = tail call noundef nonnull align 8 dereferenceable(8) ptr @_ZStlsISt11char_traitsIcEERSt13basic_ostreamIcT_ES5_PKc(ptr noundef nonnull align 8 dereferenceable(8) %17, ptr noundef nonnull @.str.1)
  br label %27

19:                                               ; preds = %.lr.ph
  %20 = tail call noundef nonnull align 8 dereferenceable(8) ptr @_ZStlsISt11char_traitsIcEERSt13basic_ostreamIcT_ES5_PKc(ptr noundef nonnull align 8 dereferenceable(8) %1, ptr noundef nonnull @.str)
  %21 = load ptr, ptr %0, align 8
  %22 = getelementptr inbounds double, ptr %21, i64 %.013
  %23 = load double, ptr %22, align 8
  %24 = tail call noundef nonnull align 8 dereferenceable(8) ptr @_ZNSolsEd(ptr noundef nonnull align 8 dereferenceable(8) %20, double noundef %23)
  %25 = tail call noundef nonnull align 8 dereferenceable(8) ptr @_ZStlsISt11char_traitsIcEERSt13basic_ostreamIcT_ES5_PKc(ptr noundef nonnull align 8 dereferenceable(8) %24, ptr noundef nonnull @.str.2)
  %26 = tail call noundef nonnull align 8 dereferenceable(8) ptr @_ZNSolsEx(ptr noundef nonnull align 8 dereferenceable(8) %25, i64 noundef %.013)
  br label %27

27:                                               ; preds = %9, %19, %12
  %28 = add nuw nsw i64 %.013, 1
  %29 = load ptr, ptr %5, align 8
  %30 = load ptr, ptr %0, align 8
  %31 = ptrtoint ptr %29 to i64
  %32 = ptrtoint ptr %30 to i64
  %33 = sub i64 %31, %32
  %34 = ashr exact i64 %33, 3
  %35 = icmp ult i64 %28, %34
  br i1 %35, label %.lr.ph, label %.loopexit, !llvm.loop !4

36:                                               ; preds = %3
  call void @llvm.lifetime.start.p0(i64 32, ptr nonnull %4)
  call void @_ZN6casadi3strIdEENSt7__cxx1112basic_stringIcSt11char_traitsIcESaIcEEERKSt6vectorIT_SaIS8_EEb(ptr dead_on_unwind nonnull writable sret(%"class.std::__cxx11::basic_string") align 8 %4, ptr noundef nonnull align 8 dereferenceable(24) %0, i1 noundef zeroext false)
  %37 = invoke noundef nonnull align 8 dereferenceable(8) ptr @_ZStlsIcSt11char_traitsIcESaIcEERSt13basic_ostreamIT_T0_ES7_RKNSt7__cxx1112basic_stringIS4_S5_T1_EE(ptr noundef nonnull align 8 dereferenceable(8) %1, ptr noundef nonnull align 8 dereferenceable(32) %4)
          to label %_ZStlsIdERSoS0_RKSt6vectorIT_SaIS2_EE.exit unwind label %38

38:                                               ; preds = %36
  %39 = landingpad { ptr, i32 }
          cleanup
  call void @_ZNSt7__cxx1112basic_stringIcSt11char_traitsIcESaIcEED1Ev(ptr noundef nonnull align 8 dereferenceable(32) %4) #21
  resume { ptr, i32 } %39

_ZStlsIdERSoS0_RKSt6vectorIT_SaIS2_EE.exit:       ; preds = %36
  call void @_ZNSt7__cxx1112basic_stringIcSt11char_traitsIcESaIcEED1Ev(ptr noundef nonnull align 8 dereferenceable(32) %4) #21
  call void @llvm.lifetime.end.p0(i64 32, ptr nonnull %4)
  br label %.loopexit

.loopexit:                                        ; preds = %27, %.preheader, %_ZStlsIdERSoS0_RKSt6vectorIT_SaIS2_EE.exit
  ret void
}